; Function Attrs: nounwind uwtable
define internal noalias ptr @H5D__farray_crt_context(ptr nocapture noundef readonly %0) #1 {
  %2 = tail call noalias ptr @H5FL_reg_malloc(ptr noundef nonnull @H5_H5D_farray_ctx_t_reg_free_list) #11
  %3 = icmp eq ptr %2, null
  br i1 %3, label %4, label %8

4:                                                ; preds = %1
  %5 = load i64, ptr @H5E_DATASET_g, align 8
  %6 = load i64, ptr @H5E_CANTALLOC_g, align 8
  %7 = tail call i32 (ptr, ptr, i32, i64, i64, ptr, ...) @H5E_printf_stack(ptr noundef nonnull @.str.2, ptr noundef nonnull @__func__.H5D__farray_crt_context, i32 noundef 232, i64 noundef %5, i64 noundef %6, ptr noundef nonnull @.str.3) #11
  br label %45

8:                                                ; preds = %1
  %9 = load ptr, ptr %0, align 8
  %10 = tail call zeroext i8 @H5F_sizeof_addr(ptr noundef %9) #11
  %11 = zext i8 %10 to i64
  store i64 %11, ptr %2, align 8
  %12 = getelementptr inbounds i8, ptr %0, i64 8
  %13 = load i32, ptr %12, align 8
  %14 = zext i32 %13 to i64
  %15 = lshr i64 %14, 16
  %.not.i = icmp ult i32 %13, 65536
  br i1 %.not.i, label %29, label %16

16:                                               ; preds = %8
  %.not24.i = icmp ult i32 %13, 16777216
  br i1 %.not24.i, label %23, label %17

17:                                               ; preds = %16
  %18 = lshr i64 %14, 24
  %19 = getelementptr inbounds [256 x i8], ptr @LogTable256, i64 0, i64 %18
  %20 = load i8, ptr %19, align 1
  %21 = zext i8 %20 to i32
  %22 = add nuw nsw i32 %21, 24
  br label %H5VM_log2_gen.exit

23:                                               ; preds = %16
  %24 = and i64 %15, 255
  %25 = getelementptr inbounds [256 x i8], ptr @LogTable256, i64 0, i64 %24
  %26 = load i8, ptr %25, align 1
  %27 = zext i8 %26 to i32
  %28 = add nuw nsw i32 %27, 16
  br label %H5VM_log2_gen.exit

29:                                               ; preds = %8
  %.not23.i = icmp ult i32 %13, 256
  br i1 %.not23.i, label %36, label %30

30:                                               ; preds = %29
  %31 = lshr i64 %14, 8
  %32 = getelementptr inbounds [256 x i8], ptr @LogTable256, i64 0, i64 %31
  %33 = load i8, ptr %32, align 1
  %34 = zext i8 %33 to i32
  %35 = add nuw nsw i32 %34, 8
  br label %H5VM_log2_gen.exit

36:                                               ; preds = %29
  %37 = getelementptr inbounds [256 x i8], ptr @LogTable256, i64 0, i64 %14
  %38 = load i8, ptr %37, align 1
  %39 = zext i8 %38 to i32
  br label %H5VM_log2_gen.exit

H5VM_log2_gen.exit:                               ; preds = %17, %23, %30, %36
  %.0.i = phi i32 [ %22, %17 ], [ %28, %23 ], [ %35, %30 ], [ %39, %36 ]
  %40 = add nuw nsw i32 %.0.i, 8
  %41 = lshr i32 %40, 3
  %42 = add nuw nsw i32 %41, 1
  %43 = getelementptr inbounds i8, ptr %2, i64 8
  %44 = icmp ugt i32 %.0.i, 55
  %narrow = select i1 %44, i32 8, i32 %42
  %spec.select = zext nneg i32 %narrow to i64
  store i64 %spec.select, ptr %43, align 8
  br label %45

45:                                               ; preds = %H5VM_log2_gen.exit, %4
  ret ptr %2
}